target datalayout = "e-m:e-p270:32:32-p271:32:32-p272:64:64-i64:64-i128:128-f80:128-n8:16:32:64-S128"
target triple = "x86_64-pc-linux-gnu"

%struct.If_Cut_t_ = type <{ float, float, float, float, i32, i32, i32, i64, [0 x i32] }>

; Function Attrs: nounwind uwtable
define void @If_CutLift(ptr noundef %0) #0 {
  %2 = alloca ptr, align 8
  %3 = alloca i32, align 4
  store ptr %0, ptr %2, align 8, !tbaa !15
  call void @llvm.lifetime.start.p0(i64 4, ptr %3) #9
  store i32 0, ptr %3, align 4, !tbaa !8
  br label %4

4:                                                ; preds = %21, %1
  %5 = load i32, ptr %3, align 4, !tbaa !8
  %6 = load ptr, ptr %2, align 8, !tbaa !15
  %7 = getelementptr inbounds nuw %struct.If_Cut_t_, ptr %6, i32 0, i32 7
  %8 = load i64, ptr %7, align 4
  %9 = lshr i64 %8, 24
  %10 = and i64 %9, 255
  %11 = trunc i64 %10 to i32
  %12 = icmp ult i32 %5, %11
  br i1 %12, label %13, label %24

13:                                               ; preds = %4
  %14 = load ptr, ptr %2, align 8, !tbaa !15
  %15 = getelementptr inbounds nuw %struct.If_Cut_t_, ptr %14, i32 0, i32 8
  %16 = load i32, ptr %3, align 4, !tbaa !8
  %17 = zext i32 %16 to i64
  %18 = getelementptr inbounds nuw [0 x i32], ptr %15, i64 0, i64 %17
  %19 = load i32, ptr %18, align 4, !tbaa !8
  %20 = add nsw i32 %19, 1
  store i32 %20, ptr %18, align 4, !tbaa !8
  br label %21

21:                                               ; preds = %13
  %22 = load i32, ptr %3, align 4, !tbaa !8
  %23 = add i32 %22, 1
  store i32 %23, ptr %3, align 4, !tbaa !8
  br label %4, !llvm.loop !105

24:                                               ; preds = %4
  call void @llvm.lifetime.end.p0(i64 4, ptr %3) #9
  ret void
}