; Function Attrs: nofree norecurse nosync nounwind memory(argmem: readwrite) uwtable
define void @If_CutLift(ptr noundef captures(none) %0) local_unnamed_addr #3 {
  %2 = getelementptr inbounds nuw i8, ptr %0, i64 28
  %3 = load i64, ptr %2, align 4
  %4 = and i64 %3, 4278190080
  %.not = icmp eq i64 %4, 0
  br i1 %.not, label %._crit_edge, label %.lr.ph

.lr.ph:                                           ; preds = %1
  %5 = lshr i64 %3, 24
  %6 = getelementptr inbounds nuw i8, ptr %0, i64 36
  %wide.trip.count = and i64 %5, 255
  br label %7

7:                                                ; preds = %.lr.ph, %7
  %indvars.iv = phi i64 [ 0, %.lr.ph ], [ %indvars.iv.next, %7 ]
  %8 = getelementptr inbounds nuw [0 x i32], ptr %6, i64 0, i64 %indvars.iv
  %9 = load i32, ptr %8, align 4, !tbaa !14
  %10 = add nsw i32 %9, 1
  store i32 %10, ptr %8, align 4, !tbaa !14
  %indvars.iv.next = add nuw nsw i64 %indvars.iv, 1
  %exitcond.not = icmp eq i64 %indvars.iv.next, %wide.trip.count
  br i1 %exitcond.not, label %._crit_edge, label %7, !llvm.loop !100

._crit_edge:                                      ; preds = %7, %1
  ret void
}